target datalayout = "e-m:e-p270:32:32-p271:32:32-p272:64:64-i64:64-i128:128-f80:128-n8:16:32:64-S128"
target triple = "x86_64-pc-linux-gnu"

%struct.Mop_Man_t_ = type { i32, i32, i32, i32, ptr, ptr, ptr, ptr }
%struct.Vec_Wrd_t_ = type { i32, i32, ptr }

@.str.3 = private unnamed_addr constant [2 x i8] c"\0A\00", align 1
@__const.Mop_ManPrintOne.Symb = private unnamed_addr constant [4 x i8] c"-01?", align 1
@.str.7 = private unnamed_addr constant [3 x i8] c"%c\00", align 1
@.str.8 = private unnamed_addr constant [2 x i8] c" \00", align 1
@.str.9 = private unnamed_addr constant [3 x i8] c"%d\00", align 1

; Function Attrs: inlinehint nounwind uwtable
define internal ptr @Vec_WrdEntryP(ptr noundef %0, i32 noundef %1) #3 {
  %3 = alloca ptr, align 8
  %4 = alloca i32, align 4
  store ptr %0, ptr %3, align 8, !tbaa !21
  store i32 %1, ptr %4, align 4, !tbaa !3
  %5 = load ptr, ptr %3, align 8, !tbaa !21
  %6 = getelementptr inbounds nuw %struct.Vec_Wrd_t_, ptr %5, i32 0, i32 2
  %7 = load ptr, ptr %6, align 8, !tbaa !25
  %8 = load i32, ptr %4, align 4, !tbaa !3
  %9 = sext i32 %8 to i64
  %10 = getelementptr inbounds i64, ptr %7, i64 %9
  ret ptr %10
}

; Function Attrs: inlinehint nounwind uwtable
define internal i32 @Abc_TtGetBit(ptr noundef %0, i32 noundef %1) #3 {
  %3 = alloca ptr, align 8
  %4 = alloca i32, align 4
  store ptr %0, ptr %3, align 8, !tbaa !42
  store i32 %1, ptr %4, align 4, !tbaa !3
  %5 = load ptr, ptr %3, align 8, !tbaa !42
  %6 = load i32, ptr %4, align 4, !tbaa !3
  %7 = ashr i32 %6, 6
  %8 = sext i32 %7 to i64
  %9 = getelementptr inbounds i64, ptr %5, i64 %8
  %10 = load i64, ptr %9, align 8, !tbaa !48
  %11 = load i32, ptr %4, align 4, !tbaa !3
  %12 = and i32 %11, 63
  %13 = zext i32 %12 to i64
  %14 = lshr i64 %10, %13
  %15 = trunc i64 %14 to i32
  %16 = and i32 %15, 1
  ret i32 %16
}

; Function Attrs: inlinehint nounwind uwtable
define internal i32 @Abc_TtGetQua(ptr noundef %0, i32 noundef %1) #3 {
  %3 = alloca ptr, align 8
  %4 = alloca i32, align 4
  store ptr %0, ptr %3, align 8, !tbaa !42
  store i32 %1, ptr %4, align 4, !tbaa !3
  %5 = load ptr, ptr %3, align 8, !tbaa !42
  %6 = load i32, ptr %4, align 4, !tbaa !3
  %7 = ashr i32 %6, 5
  %8 = sext i32 %7 to i64
  %9 = getelementptr inbounds i64, ptr %5, i64 %8
  %10 = load i64, ptr %9, align 8, !tbaa !48
  %11 = load i32, ptr %4, align 4, !tbaa !3
  %12 = shl i32 %11, 1
  %13 = and i32 %12, 63
  %14 = zext i32 %13 to i64
  %15 = lshr i64 %10, %14
  %16 = trunc i64 %15 to i32
  %17 = and i32 %16, 3
  ret i32 %17
}

; Function Attrs: inlinehint nounwind uwtable
define internal ptr @Mop_ManCubeOut(ptr noundef %0, i32 noundef %1) #3 {
  %3 = alloca ptr, align 8
  %4 = alloca i32, align 4
  store ptr %0, ptr %3, align 8, !tbaa !7
  store i32 %1, ptr %4, align 4, !tbaa !3
  %5 = load ptr, ptr %3, align 8, !tbaa !7
  %6 = getelementptr inbounds nuw %struct.Mop_Man_t_, ptr %5, i32 0, i32 5
  %7 = load ptr, ptr %6, align 8, !tbaa !18
  %8 = load ptr, ptr %3, align 8, !tbaa !7
  %9 = getelementptr inbounds nuw %struct.Mop_Man_t_, ptr %8, i32 0, i32 3
  %10 = load i32, ptr %9, align 4, !tbaa !16
  %11 = load i32, ptr %4, align 4, !tbaa !3
  %12 = mul nsw i32 %10, %11
  %13 = call ptr @Vec_WrdEntryP(ptr noundef %7, i32 noundef %12)
  ret ptr %13
}

; Function Attrs: inlinehint nounwind uwtable
define internal ptr @Mop_ManCubeIn(ptr noundef %0, i32 noundef %1) #3 {
  %3 = alloca ptr, align 8
  %4 = alloca i32, align 4
  store ptr %0, ptr %3, align 8, !tbaa !7
  store i32 %1, ptr %4, align 4, !tbaa !3
  %5 = load ptr, ptr %3, align 8, !tbaa !7
  %6 = getelementptr inbounds nuw %struct.Mop_Man_t_, ptr %5, i32 0, i32 4
  %7 = load ptr, ptr %6, align 8, !tbaa !17
  %8 = load ptr, ptr %3, align 8, !tbaa !7
  %9 = getelementptr inbounds nuw %struct.Mop_Man_t_, ptr %8, i32 0, i32 2
  %10 = load i32, ptr %9, align 8, !tbaa !15
  %11 = load i32, ptr %4, align 4, !tbaa !3
  %12 = mul nsw i32 %10, %11
  %13 = call ptr @Vec_WrdEntryP(ptr noundef %7, i32 noundef %12)
  ret ptr %13
}

; Function Attrs: nounwind uwtable
define void @Mop_ManPrintOne(ptr noundef %0, i32 noundef %1) #0 {
  %3 = alloca ptr, align 8
  %4 = alloca i32, align 4
  %5 = alloca i32, align 4
  %6 = alloca [4 x i8], align 1
  %7 = alloca ptr, align 8
  %8 = alloca ptr, align 8
  store ptr %0, ptr %3, align 8, !tbaa !7
  store i32 %1, ptr %4, align 4, !tbaa !3
  call void @llvm.lifetime.start.p0(i64 4, ptr %5) #13
  call void @llvm.lifetime.start.p0(i64 4, ptr %6) #13
  call void @llvm.memcpy.p0.p0.i64(ptr align 1 %6, ptr align 1 @__const.Mop_ManPrintOne.Symb, i64 4, i1 false)
  call void @llvm.lifetime.start.p0(i64 8, ptr %7) #13
  %9 = load ptr, ptr %3, align 8, !tbaa !7
  %10 = load i32, ptr %4, align 4, !tbaa !3
  %11 = call ptr @Mop_ManCubeIn(ptr noundef %9, i32 noundef %10)
  store ptr %11, ptr %7, align 8, !tbaa !42
  call void @llvm.lifetime.start.p0(i64 8, ptr %8) #13
  %12 = load ptr, ptr %3, align 8, !tbaa !7
  %13 = load i32, ptr %4, align 4, !tbaa !3
  %14 = call ptr @Mop_ManCubeOut(ptr noundef %12, i32 noundef %13)
  store ptr %14, ptr %8, align 8, !tbaa !42
  store i32 0, ptr %5, align 4, !tbaa !3
  br label %15

15:                                               ; preds = %30, %2
  %16 = load i32, ptr %5, align 4, !tbaa !3
  %17 = load ptr, ptr %3, align 8, !tbaa !7
  %18 = getelementptr inbounds nuw %struct.Mop_Man_t_, ptr %17, i32 0, i32 0
  %19 = load i32, ptr %18, align 8, !tbaa !10
  %20 = icmp slt i32 %16, %19
  br i1 %20, label %21, label %33

21:                                               ; preds = %15
  %22 = load ptr, ptr %7, align 8, !tbaa !42
  %23 = load i32, ptr %5, align 4, !tbaa !3
  %24 = call i32 @Abc_TtGetQua(ptr noundef %22, i32 noundef %23)
  %25 = sext i32 %24 to i64
  %26 = getelementptr inbounds [4 x i8], ptr %6, i64 0, i64 %25
  %27 = load i8, ptr %26, align 1, !tbaa !37
  %28 = sext i8 %27 to i32
  %29 = call i32 (ptr, ...) @printf(ptr noundef @.str.7, i32 noundef %28)
  br label %30

30:                                               ; preds = %21
  %31 = load i32, ptr %5, align 4, !tbaa !3
  %32 = add nsw i32 %31, 1
  store i32 %32, ptr %5, align 4, !tbaa !3
  br label %15, !llvm.loop !50

33:                                               ; preds = %15
  %34 = call i32 (ptr, ...) @printf(ptr noundef @.str.8)
  store i32 0, ptr %5, align 4, !tbaa !3
  br label %35

35:                                               ; preds = %46, %33
  %36 = load i32, ptr %5, align 4, !tbaa !3
  %37 = load ptr, ptr %3, align 8, !tbaa !7
  %38 = getelementptr inbounds nuw %struct.Mop_Man_t_, ptr %37, i32 0, i32 1
  %39 = load i32, ptr %38, align 4, !tbaa !14
  %40 = icmp slt i32 %36, %39
  br i1 %40, label %41, label %49

41:                                               ; preds = %35
  %42 = load ptr, ptr %8, align 8, !tbaa !42
  %43 = load i32, ptr %5, align 4, !tbaa !3
  %44 = call i32 @Abc_TtGetBit(ptr noundef %42, i32 noundef %43)
  %45 = call i32 (ptr, ...) @printf(ptr noundef @.str.9, i32 noundef %44)
  br label %46

46:                                               ; preds = %41
  %47 = load i32, ptr %5, align 4, !tbaa !3
  %48 = add nsw i32 %47, 1
  store i32 %48, ptr %5, align 4, !tbaa !3
  br label %35, !llvm.loop !51

49:                                               ; preds = %35
  %50 = call i32 (ptr, ...) @printf(ptr noundef @.str.3)
  call void @llvm.lifetime.end.p0(i64 8, ptr %8) #13
  call void @llvm.lifetime.end.p0(i64 8, ptr %7) #13
  call void @llvm.lifetime.end.p0(i64 4, ptr %6) #13
  call void @llvm.lifetime.end.p0(i64 4, ptr %5) #13
  ret void
}