; Function Attrs: nofree nounwind uwtable
define void @Mop_ManPrintOne(ptr noundef readonly captures(none) %0, i32 noundef %1) local_unnamed_addr #9 {
  %3 = getelementptr i8, ptr %0, i64 8
  %.val = load i32, ptr %3, align 8, !tbaa !12
  %4 = getelementptr i8, ptr %0, i64 16
  %.val15 = load ptr, ptr %4, align 8, !tbaa !19
  %5 = getelementptr i8, ptr %.val15, i64 8
  %.val15.val = load ptr, ptr %5, align 8, !tbaa !17
  %6 = mul nsw i32 %.val, %1
  %7 = sext i32 %6 to i64
  %8 = getelementptr inbounds i64, ptr %.val15.val, i64 %7
  %9 = getelementptr i8, ptr %0, i64 12
  %.val16 = load i32, ptr %9, align 4, !tbaa !13
  %10 = getelementptr i8, ptr %0, i64 24
  %.val17 = load ptr, ptr %10, align 8, !tbaa !20
  %11 = getelementptr i8, ptr %.val17, i64 8
  %.val17.val = load ptr, ptr %11, align 8, !tbaa !17
  %12 = mul nsw i32 %.val16, %1
  %13 = sext i32 %12 to i64
  %14 = getelementptr inbounds i64, ptr %.val17.val, i64 %13
  %15 = load i32, ptr %0, align 8, !tbaa !3
  %16 = icmp sgt i32 %15, 0
  br i1 %16, label %.lr.ph, label %._crit_edge

.lr.ph:                                           ; preds = %2, %.lr.ph
  %.018 = phi i32 [ %29, %.lr.ph ], [ 0, %2 ]
  %17 = lshr i32 %.018, 5
  %18 = zext nneg i32 %17 to i64
  %19 = getelementptr inbounds nuw i64, ptr %8, i64 %18
  %20 = load i64, ptr %19, align 8, !tbaa !39
  %21 = shl nuw i32 %.018, 1
  %22 = and i32 %21, 62
  %23 = zext nneg i32 %22 to i64
  %24 = lshr i64 %20, %23
  %25 = and i64 %24, 3
  %26 = getelementptr inbounds nuw [4 x i8], ptr @__const.Mop_ManDerive.Symb, i64 0, i64 %25
  %27 = load i8, ptr %26, align 1, !tbaa !34
  %28 = sext i8 %27 to i32
  %putchar14 = tail call i32 @putchar(i32 %28)
  %29 = add nuw nsw i32 %.018, 1
  %30 = load i32, ptr %0, align 8, !tbaa !3
  %31 = icmp slt i32 %29, %30
  br i1 %31, label %.lr.ph, label %._crit_edge, !llvm.loop !46

._crit_edge:                                      ; preds = %.lr.ph, %2
  %putchar = tail call i32 @putchar(i32 32)
  %32 = getelementptr inbounds nuw i8, ptr %0, i64 4
  %33 = load i32, ptr %32, align 4, !tbaa !11
  %34 = icmp sgt i32 %33, 0
  br i1 %34, label %.lr.ph21, label %._crit_edge22

.lr.ph21:                                         ; preds = %._crit_edge, %.lr.ph21
  %.119 = phi i32 [ %45, %.lr.ph21 ], [ 0, %._crit_edge ]
  %35 = lshr i32 %.119, 6
  %36 = zext nneg i32 %35 to i64
  %37 = getelementptr inbounds nuw i64, ptr %14, i64 %36
  %38 = load i64, ptr %37, align 8, !tbaa !39
  %39 = and i32 %.119, 63
  %40 = zext nneg i32 %39 to i64
  %41 = lshr i64 %38, %40
  %42 = trunc i64 %41 to i32
  %43 = and i32 %42, 1
  %44 = tail call i32 (ptr, ...) @printf(ptr noundef nonnull dereferenceable(1) @.str.9, i32 noundef %43)
  %45 = add nuw nsw i32 %.119, 1
  %46 = load i32, ptr %32, align 4, !tbaa !11
  %47 = icmp slt i32 %45, %46
  br i1 %47, label %.lr.ph21, label %._crit_edge22, !llvm.loop !47

._crit_edge22:                                    ; preds = %.lr.ph21, %._crit_edge
  %putchar13 = tail call i32 @putchar(i32 10)
  ret void
}